; Function Attrs: mustprogress nounwind uwtable
define hidden void @_ZN10OopStorage13BasicParStateD2Ev(ptr nocapture noundef nonnull readonly align 8 dereferenceable(48) %0) unnamed_addr #5 align 2 {
  %2 = getelementptr inbounds i8, ptr %0, i64 8
  %3 = load ptr, ptr %2, align 8
  %4 = getelementptr inbounds i8, ptr %3, i64 16
  %5 = tail call noundef i32 asm sideeffect "lock xaddl $0,($2)", "=r,0,r,~{cc},~{memory},~{dirflag},~{fpsr},~{flags}"(i32 -1, ptr nonnull %4) #21, !srcloc !7
  %6 = icmp eq i32 %5, 1
  br i1 %6, label %7, label %_ZNK10OopStorage22relinquish_block_arrayEPNS_11ActiveArrayE.exit

7:                                                ; preds = %1
  tail call void @_Z8FreeHeapPv(ptr noundef nonnull %3) #21
  br label %_ZNK10OopStorage22relinquish_block_arrayEPNS_11ActiveArrayE.exit

_ZNK10OopStorage22relinquish_block_arrayEPNS_11ActiveArrayE.exit: ; preds = %1, %7
  %8 = getelementptr inbounds i8, ptr %0, i64 36
  %9 = load i8, ptr %8, align 4
  %10 = trunc i8 %9 to i1
  br i1 %10, label %11, label %_ZN10OopStorage13BasicParState33update_concurrent_iteration_countEi.exit

11:                                               ; preds = %_ZNK10OopStorage22relinquish_block_arrayEPNS_11ActiveArrayE.exit
  %12 = load ptr, ptr %0, align 8
  %13 = getelementptr inbounds i8, ptr %12, i64 48
  %14 = load ptr, ptr %13, align 8
  %.not.i.i.i = icmp eq ptr %14, null
  br i1 %.not.i.i.i, label %_ZN11MutexLockerC2EP5MutexNS0_18SafepointCheckFlagE.exit.thread.i, label %18

_ZN11MutexLockerC2EP5MutexNS0_18SafepointCheckFlagE.exit.thread.i: ; preds = %11
  %15 = getelementptr inbounds i8, ptr %12, i64 120
  %16 = load i32, ptr %15, align 8
  %17 = add nsw i32 %16, -1
  store i32 %17, ptr %15, align 8
  br label %_ZN10OopStorage13BasicParState33update_concurrent_iteration_countEi.exit

18:                                               ; preds = %11
  tail call void @_ZN5Mutex28lock_without_safepoint_checkEv(ptr noundef nonnull align 8 dereferenceable(104) %14) #21
  %19 = load ptr, ptr %0, align 8
  %20 = getelementptr inbounds i8, ptr %19, i64 120
  %21 = load i32, ptr %20, align 8
  %22 = add nsw i32 %21, -1
  store i32 %22, ptr %20, align 8
  tail call void @_ZN5Mutex6unlockEv(ptr noundef nonnull align 8 dereferenceable(104) %14) #21
  br label %_ZN10OopStorage13BasicParState33update_concurrent_iteration_countEi.exit

_ZN10OopStorage13BasicParState33update_concurrent_iteration_countEi.exit: ; preds = %_ZNK10OopStorage22relinquish_block_arrayEPNS_11ActiveArrayE.exit, %_ZN11MutexLockerC2EP5MutexNS0_18SafepointCheckFlagE.exit.thread.i, %18
  %23 = load i8, ptr %8, align 4
  %24 = trunc i8 %23 to i1
  br i1 %24, label %25, label %29

25:                                               ; preds = %_ZN10OopStorage13BasicParState33update_concurrent_iteration_countEi.exit
  %26 = load ptr, ptr %0, align 8
  %27 = getelementptr inbounds i8, ptr %26, i64 125
  tail call void asm sideeffect "", "~{memory},~{dirflag},~{fpsr},~{flags}"() #21, !srcloc !6
  store volatile i8 1, ptr %27, align 1
  %28 = tail call i8 asm sideeffect "xchgb ($2),$0", "=q,0,r,~{memory},~{dirflag},~{fpsr},~{flags}"(i1 true, ptr nonnull @_ZL23needs_cleanup_requested) #21, !srcloc !17
  br label %29

29:                                               ; preds = %25, %_ZN10OopStorage13BasicParState33update_concurrent_iteration_countEi.exit
  ret void
}